; Function Attrs: mustprogress nofree norecurse nosync nounwind willreturn memory(none) uwtable
define dso_local { ptr, i64 } @_ZN4llvm4CSKY11getArchNameENS0_8ArchKindE(i32 noundef %0) local_unnamed_addr #1 {
  %2 = zext i32 %0 to i64
  %3 = getelementptr inbounds nuw [12 x %"struct.llvm::CSKY::ArchNames"], ptr @_ZN4llvm4CSKYL9ARCHNamesE, i64 0, i64 %2
  %4 = load ptr, ptr %3, align 16
  %5 = getelementptr inbounds nuw i8, ptr %3, i64 8
  %6 = load i64, ptr %5, align 8
  %.fca.0.insert.i = insertvalue { ptr, i64 } poison, ptr %4, 0
  %.fca.1.insert.i = insertvalue { ptr, i64 } %.fca.0.insert.i, i64 %6, 1
  ret { ptr, i64 } %.fca.1.insert.i
}